target datalayout = "e-m:e-p270:32:32-p271:32:32-p272:64:64-i64:64-i128:128-f80:128-n8:16:32:64-S128"
target triple = "x86_64-pc-linux-gnu"

%struct._value_string_ext = type { ptr, i32, i32, ptr, ptr }
%struct._ftdi_mpsse_info_t = type { i32, i32, i32, i32, i8 }

@command_vals_ext = internal global %struct._value_string_ext { ptr @_try_val_to_str_ext_init, i32 0, i32 41, ptr @command_vals, ptr @.str.126 }, align 8
@.str.125 = private unnamed_addr constant [35 x i8] c"Undocumented Data Shifting Command\00", align 1
@h_only_command_vals_ext = internal global %struct._value_string_ext { ptr @_try_val_to_str_ext_init, i32 0, i32 13, ptr @h_only_command_vals, ptr @.str.173 }, align 8
@cpumode_command_vals_ext = internal global %struct._value_string_ext { ptr @_try_val_to_str_ext_init, i32 0, i32 4, ptr @cpumode_command_vals, ptr @.str.188 }, align 8
@ft2232d_only_command_vals = internal constant [2 x { i32, [4 x i8], ptr }] [{ i32, [4 x i8], ptr } { i32 134, [4 x i8] zeroinitializer, ptr @.str.169 }, { i32, [4 x i8], ptr } zeroinitializer], align 16
@ft232h_only_command_vals = internal constant [2 x { i32, [4 x i8], ptr }] [{ i32, [4 x i8], ptr } { i32 158, [4 x i8] zeroinitializer, ptr @.str.171 }, { i32, [4 x i8], ptr } zeroinitializer], align 16

; Function Attrs: null_pointer_is_valid sspstrong uwtable
define internal ptr @get_command_string(i8 noundef zeroext %0, ptr noundef %1) #0 {
  %3 = alloca ptr, align 8
  %4 = alloca i8, align 1
  %5 = alloca ptr, align 8
  %6 = alloca ptr, align 8
  %7 = alloca i32, align 4
  store i8 %0, ptr %4, align 1
  store ptr %1, ptr %5, align 8
  call void @llvm.lifetime.start.p0(i64 8, ptr %6) #11
  %8 = load i8, ptr %4, align 1
  %9 = zext i8 %8 to i32
  %10 = call ptr @try_val_to_str_ext(i32 noundef %9, ptr noundef @command_vals_ext)
  store ptr %10, ptr %6, align 8
  %11 = load ptr, ptr %6, align 8
  %12 = icmp ne ptr %11, null
  br i1 %12, label %13, label %15

13:                                               ; preds = %2
  %14 = load ptr, ptr %6, align 8
  store ptr %14, ptr %3, align 8
  store i32 1, ptr %7, align 4
  br label %54

15:                                               ; preds = %2
  %16 = load i8, ptr %4, align 1
  %17 = call zeroext i1 @is_data_shifting_command(i8 noundef zeroext %16)
  br i1 %17, label %18, label %19

18:                                               ; preds = %15
  store ptr @.str.125, ptr %3, align 8
  store i32 1, ptr %7, align 4
  br label %54

19:                                               ; preds = %15
  %20 = load ptr, ptr %5, align 8
  %21 = getelementptr inbounds nuw %struct._ftdi_mpsse_info_t, ptr %20, i32 0, i32 2
  %22 = load i32, ptr %21, align 4
  switch i32 %22, label %39 [
    i32 3, label %23
    i32 7, label %27
    i32 5, label %35
    i32 6, label %35
  ]

23:                                               ; preds = %19
  %24 = load i8, ptr %4, align 1
  %25 = zext i8 %24 to i32
  %26 = call ptr @try_val_to_str(i32 noundef %25, ptr noundef @ft2232d_only_command_vals)
  store ptr %26, ptr %6, align 8
  br label %40

27:                                               ; preds = %19
  %28 = load i8, ptr %4, align 1
  %29 = zext i8 %28 to i32
  %30 = call ptr @try_val_to_str(i32 noundef %29, ptr noundef @ft232h_only_command_vals)
  store ptr %30, ptr %6, align 8
  %31 = load ptr, ptr %6, align 8
  %32 = icmp ne ptr %31, null
  br i1 %32, label %33, label %34

33:                                               ; preds = %27
  br label %40

34:                                               ; preds = %27
  br label %35

35:                                               ; preds = %19, %19, %34
  %36 = load i8, ptr %4, align 1
  %37 = zext i8 %36 to i32
  %38 = call ptr @try_val_to_str_ext(i32 noundef %37, ptr noundef @h_only_command_vals_ext)
  store ptr %38, ptr %6, align 8
  br label %40

39:                                               ; preds = %19
  br label %40

40:                                               ; preds = %39, %35, %33, %23
  %41 = load ptr, ptr %6, align 8
  %42 = icmp ne ptr %41, null
  br i1 %42, label %52, label %43

43:                                               ; preds = %40
  %44 = load ptr, ptr %5, align 8
  %45 = getelementptr inbounds nuw %struct._ftdi_mpsse_info_t, ptr %44, i32 0, i32 4
  %46 = load i8, ptr %45, align 4, !range !6, !noundef !7
  %47 = trunc i8 %46 to i1
  br i1 %47, label %48, label %52

48:                                               ; preds = %43
  %49 = load i8, ptr %4, align 1
  %50 = zext i8 %49 to i32
  %51 = call ptr @try_val_to_str_ext(i32 noundef %50, ptr noundef @cpumode_command_vals_ext)
  store ptr %51, ptr %6, align 8
  br label %52

52:                                               ; preds = %48, %43, %40
  %53 = load ptr, ptr %6, align 8
  store ptr %53, ptr %3, align 8
  store i32 1, ptr %7, align 4
  br label %54

54:                                               ; preds = %52, %18, %13
  call void @llvm.lifetime.end.p0(i64 8, ptr %6) #11
  %55 = load ptr, ptr %3, align 8
  ret ptr %55
}