; Function Attrs: null_pointer_is_valid sspstrong uwtable
define internal fastcc ptr @get_command_string(i8 noundef zeroext %0, ptr noundef nonnull readonly captures(none) %1) unnamed_addr #0 {
  %3 = zext i8 %0 to i32
  %4 = tail call ptr @try_val_to_str_ext(i32 noundef %3, ptr noundef nonnull @command_vals_ext)
  %.not = icmp eq ptr %4, null
  br i1 %.not, label %5, label %.thread21

5:                                                ; preds = %2
  %6 = tail call fastcc zeroext i1 @is_data_shifting_command(i8 noundef zeroext %0)
  br i1 %6, label %.thread21, label %7

7:                                                ; preds = %5
  %8 = getelementptr inbounds nuw i8, ptr %1, i64 8
  %9 = load i32, ptr %8, align 4
  switch i32 %9, label %.thread [
    i32 3, label %10
    i32 7, label %12
    i32 5, label %14
    i32 6, label %14
  ]

10:                                               ; preds = %7
  %11 = tail call ptr @try_val_to_str(i32 noundef %3, ptr noundef nonnull @ft2232d_only_command_vals)
  br label %16

12:                                               ; preds = %7
  %13 = tail call ptr @try_val_to_str(i32 noundef %3, ptr noundef nonnull @ft232h_only_command_vals)
  %.not17 = icmp eq ptr %13, null
  br i1 %.not17, label %14, label %.thread21

14:                                               ; preds = %12, %7, %7
  %15 = tail call ptr @try_val_to_str_ext(i32 noundef %3, ptr noundef nonnull @h_only_command_vals_ext)
  br label %16

16:                                               ; preds = %14, %10
  %.0 = phi ptr [ %15, %14 ], [ %11, %10 ]
  %.not18 = icmp eq ptr %.0, null
  br i1 %.not18, label %.thread, label %.thread21

.thread:                                          ; preds = %7, %16
  %17 = getelementptr inbounds nuw i8, ptr %1, i64 16
  %18 = load i8, ptr %17, align 4, !range !6, !noundef !7
  %19 = trunc nuw i8 %18 to i1
  br i1 %19, label %20, label %.thread21

20:                                               ; preds = %.thread
  %21 = tail call ptr @try_val_to_str_ext(i32 noundef %3, ptr noundef nonnull @cpumode_command_vals_ext)
  br label %.thread21

.thread21:                                        ; preds = %12, %16, %.thread, %20, %5, %2
  %.013 = phi ptr [ %4, %2 ], [ @.str.125, %5 ], [ %.0, %16 ], [ %21, %20 ], [ null, %.thread ], [ %13, %12 ]
  ret ptr %.013
}